target datalayout = "e-m:e-p270:32:32-p271:32:32-p272:64:64-i64:64-i128:128-f80:128-n8:16:32:64-S128"
target triple = "x86_64-unknown-linux-gnu"

%class.btMatrix3x3 = type { [3 x %class.btVector3] }
%class.btVector3 = type { [4 x float] }
%class.btDeformableContactConstraint = type { ptr, i8, ptr, %class.btVector3 }
%class.btReducedDeformableRigidContactConstraint = type <{ %class.btDeformableRigidContactConstraint, i8, i8, [2 x i8], i32, i32, [4 x i8], ptr, ptr, float, float, float, float, float, float, float, float, float, float, float, float, float, float, float, float, float, %class.btVector3, %class.btVector3, %class.btVector3, %class.btVector3, %class.btVector3, %class.btVector3, %class.btMatrix3x3, %class.btVector3, %class.btVector3, %class.btVector3, %class.btVector3, %class.btVector3, %class.btVector3, [4 x i8] }>
%class.btDeformableRigidContactConstraint = type { %class.btDeformableContactConstraint, %class.btVector3, %class.btVector3, float, float, i8, ptr }

; Function Attrs: mustprogress uwtable
define dso_local void @_ZN45btReducedDeformableNodeRigidContactConstraint12applyImpulseERK9btVector3(ptr noundef nonnull align 8 dereferenceable(448) %this, ptr noundef nonnull align 4 dereferenceable(16) %impulse) unnamed_addr #6 align 2 {
entry:
  %this.addr = alloca ptr, align 8
  %impulse.addr = alloca ptr, align 8
  store ptr %this, ptr %this.addr, align 8
  store ptr %impulse, ptr %impulse.addr, align 8
  %this1 = load ptr, ptr %this.addr, align 8
  %m_rsb = getelementptr inbounds %class.btReducedDeformableRigidContactConstraint, ptr %this1, i32 0, i32 7
  %0 = load ptr, ptr %m_rsb, align 8
  %1 = load ptr, ptr %impulse.addr, align 8
  %m_relPosB = getelementptr inbounds %class.btReducedDeformableRigidContactConstraint, ptr %this1, i32 0, i32 31
  %m_nodeQueryIndex = getelementptr inbounds %class.btReducedDeformableRigidContactConstraint, ptr %this1, i32 0, i32 4
  %2 = load i32, ptr %m_nodeQueryIndex, align 4
  %m_dt = getelementptr inbounds %class.btReducedDeformableRigidContactConstraint, ptr %this1, i32 0, i32 9
  %3 = load float, ptr %m_dt, align 8
  call void @_ZN23btReducedDeformableBody29internalApplyFullSpaceImpulseERK9btVector3S2_if(ptr noundef nonnull align 8 dereferenceable(3176) %0, ptr noundef nonnull align 4 dereferenceable(16) %1, ptr noundef nonnull align 4 dereferenceable(16) %m_relPosB, i32 noundef %2, float noundef %3)
  ret void
}