; Function Attrs: mustprogress uwtable
define dso_local void @_ZN45btReducedDeformableNodeRigidContactConstraint12applyImpulseERK9btVector3(ptr noundef nonnull align 8 dereferenceable(448) %this, ptr noundef nonnull align 4 dereferenceable(16) %impulse) unnamed_addr #5 align 2 {
entry:
  %m_rsb = getelementptr inbounds i8, ptr %this, i64 112
  %0 = load ptr, ptr %m_rsb, align 8
  %m_relPosB = getelementptr inbounds i8, ptr %this, i64 276
  %m_nodeQueryIndex = getelementptr inbounds i8, ptr %this, i64 100
  %1 = load i32, ptr %m_nodeQueryIndex, align 4
  %m_dt = getelementptr inbounds i8, ptr %this, i64 128
  %2 = load float, ptr %m_dt, align 8
  tail call void @_ZN23btReducedDeformableBody29internalApplyFullSpaceImpulseERK9btVector3S2_if(ptr noundef nonnull align 8 dereferenceable(3176) %0, ptr noundef nonnull align 4 dereferenceable(16) %impulse, ptr noundef nonnull align 4 dereferenceable(16) %m_relPosB, i32 noundef %1, float noundef %2)
  ret void
}